; Function Attrs: nounwind uwtable
define internal ptr @getargs_c(ptr readnone captures(none) %0, ptr noundef %1) #0 {
  %3 = alloca i8, align 1
  call void @llvm.lifetime.start.p0(i64 1, ptr nonnull %3) #7
  %4 = call i32 (ptr, ptr, ...) @PyArg_ParseTuple(ptr noundef %1, ptr noundef nonnull @.str.57, ptr noundef nonnull %3) #7
  %.not = icmp eq i32 %4, 0
  br i1 %.not, label %9, label %5

5:                                                ; preds = %2
  %6 = load i8, ptr %3, align 1, !tbaa !3
  %7 = zext i8 %6 to i64
  %8 = call ptr @PyLong_FromLong(i64 noundef %7) #7
  br label %9

9:                                                ; preds = %2, %5
  %.0 = phi ptr [ %8, %5 ], [ null, %2 ]
  call void @llvm.lifetime.end.p0(i64 1, ptr nonnull %3) #7
  ret ptr %.0
}